ARM GAS  C:\Users\vanil\AppData\Local\Temp\cc1mf0aa.s 			page 1


   1              		.syntax unified
   2              		.cpu cortex-m0
   3              		.fpu softvfp
   4              		.eabi_attribute 20, 1
   5              		.eabi_attribute 21, 1
   6              		.eabi_attribute 23, 3
   7              		.eabi_attribute 24, 1
   8              		.eabi_attribute 25, 1
   9              		.eabi_attribute 26, 1
  10              		.eabi_attribute 30, 1
  11              		.eabi_attribute 34, 0
  12              		.eabi_attribute 18, 4
  13              		.thumb
  14              		.syntax unified
  15              		.file	"main.c"
  16              		.text
  17              	.Ltext0:
  18              		.cfi_sections	.debug_frame
  19              		.section	.text.isr_100Hz,"ax",%progbits
  20              		.align	2
  21              		.global	isr_100Hz
  22              		.code	16
  23              		.thumb_func
  24              		.type	isr_100Hz, %function
  25              	isr_100Hz:
  26              	.LFB35:
  27              		.file 1 "main.c"
   1:main.c        **** /* ========================================
   2:main.c        ****  *
   3:main.c        ****  * Copyright YOUR COMPANY, THE YEAR
   4:main.c        ****  * All Rights Reserved
   5:main.c        ****  * UNPUBLISHED, LICENSED SOFTWARE.
   6:main.c        ****  *
   7:main.c        ****  * CONFIDENTIAL AND PROPRIETARY INFORMATION
   8:main.c        ****  * WHICH IS THE PROPERTY OF your company.
   9:main.c        ****  *
  10:main.c        ****  * ========================================
  11:main.c        **** */
  12:main.c        **** #include "project.h"
  13:main.c        **** #include <stdlib.h>
  14:main.c        **** #include <math.h>
  15:main.c        **** 
  16:main.c        **** void out7seg(uint16, uint8, uint8);
  17:main.c        **** 
  18:main.c        **** uint16 indyk[4] = {0x10FF,0x20FF,0x40FF,0x80FF};
  19:main.c        **** const uint8 KOD7[10] = {0x03,0x9F,0x25,0x0D,0x99,0x49,0x41,0x1F,0x01,0x09};
  20:main.c        **** const uint8 SIGN = 0xFD;
  21:main.c        **** const uint8 DOT = 0x7F;
  22:main.c        **** 
  23:main.c        **** CY_ISR(isr_100Hz)
  24:main.c        **** {
  28              		.loc 1 24 0
  29              		.cfi_startproc
  30              		@ args = 0, pretend = 0, frame = 0
  31              		@ frame_needed = 0, uses_anonymous_args = 0
  32 0000 10B5     		push	{r4, lr}
  33              		.cfi_def_cfa_offset 8
ARM GAS  C:\Users\vanil\AppData\Local\Temp\cc1mf0aa.s 			page 2


  34              		.cfi_offset 4, -8
  35              		.cfi_offset 14, -4
  25:main.c        ****     static uint8 N_indyk = 0u;
  26:main.c        ****     
  27:main.c        ****     SPIM_WriteTxData(indyk[N_indyk]);
  36              		.loc 1 27 0
  37 0002 064C     		ldr	r4, .L2
  38 0004 2378     		ldrb	r3, [r4]
  39 0006 5B00     		lsls	r3, r3, #1
  40 0008 054A     		ldr	r2, .L2+4
  41 000a 985A     		ldrh	r0, [r3, r2]
  42 000c FFF7FEFF 		bl	SPIM_WriteTxData
  43              	.LVL0:
  28:main.c        ****     
  29:main.c        ****     N_indyk++;
  44              		.loc 1 29 0
  45 0010 2378     		ldrb	r3, [r4]
  46 0012 0133     		adds	r3, r3, #1
  30:main.c        ****     N_indyk &= 3;    
  47              		.loc 1 30 0
  48 0014 0322     		movs	r2, #3
  49 0016 1340     		ands	r3, r2
  50 0018 2370     		strb	r3, [r4]
  31:main.c        **** }
  51              		.loc 1 31 0
  52              		@ sp needed
  53 001a 10BD     		pop	{r4, pc}
  54              	.L3:
  55              		.align	2
  56              	.L2:
  57 001c 00000000 		.word	.LANCHOR1
  58 0020 00000000 		.word	.LANCHOR0
  59              		.cfi_endproc
  60              	.LFE35:
  61              		.size	isr_100Hz, .-isr_100Hz
  62              		.global	__aeabi_i2d
  63              		.global	__aeabi_ui2d
  64              		.global	__aeabi_uidivmod
  65              		.global	__aeabi_dcmplt
  66              		.global	__aeabi_uidiv
  67              		.section	.text.out7seg,"ax",%progbits
  68              		.align	2
  69              		.global	out7seg
  70              		.code	16
  71              		.thumb_func
  72              		.type	out7seg, %function
  73              	out7seg:
  74              	.LFB36:
  32:main.c        **** 
  33:main.c        **** void out7seg(uint16 data, uint8 flag, uint8 position)
  34:main.c        **** {
  75              		.loc 1 34 0
  76              		.cfi_startproc
  77              		@ args = 0, pretend = 0, frame = 16
  78              		@ frame_needed = 0, uses_anonymous_args = 0
  79              	.LVL1:
  80 0000 F0B5     		push	{r4, r5, r6, r7, lr}
ARM GAS  C:\Users\vanil\AppData\Local\Temp\cc1mf0aa.s 			page 3


  81              		.cfi_def_cfa_offset 20
  82              		.cfi_offset 4, -20
  83              		.cfi_offset 5, -16
  84              		.cfi_offset 6, -12
  85              		.cfi_offset 7, -8
  86              		.cfi_offset 14, -4
  87 0002 5746     		mov	r7, r10
  88 0004 4E46     		mov	r6, r9
  89 0006 4546     		mov	r5, r8
  90 0008 E0B4     		push	{r5, r6, r7}
  91              		.cfi_def_cfa_offset 32
  92              		.cfi_offset 8, -32
  93              		.cfi_offset 9, -28
  94              		.cfi_offset 10, -24
  95 000a 84B0     		sub	sp, sp, #16
  96              		.cfi_def_cfa_offset 48
  97 000c 8046     		mov	r8, r0
  98 000e 8A46     		mov	r10, r1
  99 0010 1700     		movs	r7, r2
  35:main.c        ****     uint8 i;
  36:main.c        ****     uint8 zero = data < pow(10, position) ? 1 : 0;
 100              		.loc 1 36 0
 101 0012 FFF7FEFF 		bl	__aeabi_i2d
 102              	.LVL2:
 103 0016 0090     		str	r0, [sp]
 104 0018 0191     		str	r1, [sp, #4]
 105 001a 3800     		movs	r0, r7
 106 001c FFF7FEFF 		bl	__aeabi_ui2d
 107              	.LVL3:
 108 0020 0200     		movs	r2, r0
 109 0022 0B00     		movs	r3, r1
 110 0024 0020     		movs	r0, #0
 111 0026 3949     		ldr	r1, .L18
 112 0028 FFF7FEFF 		bl	pow
 113              	.LVL4:
 114 002c 0290     		str	r0, [sp, #8]
 115 002e 0391     		str	r1, [sp, #12]
 116              	.LVL5:
  37:main.c        ****     
  38:main.c        ****     for (i = 0; i < 4; i++)
 117              		.loc 1 38 0
 118 0030 0024     		movs	r4, #0
 119 0032 4546     		mov	r5, r8
 120 0034 48E0     		b	.L5
 121              	.LVL6:
 122              	.L11:
 123              	.LBB2:
  39:main.c        ****     {
  40:main.c        ****         uint8 sign = 0xFF;
  41:main.c        ****         indyk[i] &= 0xFF00;
 124              		.loc 1 41 0
 125 0036 A146     		mov	r9, r4
 126 0038 354A     		ldr	r2, .L18+4
 127 003a 6100     		lsls	r1, r4, #1
 128 003c 8B5A     		ldrh	r3, [r1, r2]
 129 003e FF20     		movs	r0, #255
 130 0040 8343     		bics	r3, r0
ARM GAS  C:\Users\vanil\AppData\Local\Temp\cc1mf0aa.s 			page 4


 131 0042 9846     		mov	r8, r3
 132 0044 8B52     		strh	r3, [r1, r2]
  42:main.c        ****         if(position && i == position) sign = 0xFE;
 133              		.loc 1 42 0
 134 0046 002F     		cmp	r7, #0
 135 0048 03D0     		beq	.L15
 136              		.loc 1 42 0 is_stmt 0 discriminator 1
 137 004a BC42     		cmp	r4, r7
 138 004c 03D0     		beq	.L16
  40:main.c        ****         indyk[i] &= 0xFF00;
 139              		.loc 1 40 0 is_stmt 1
 140 004e FF26     		movs	r6, #255
 141 0050 02E0     		b	.L6
 142              	.L15:
 143 0052 FF26     		movs	r6, #255
 144 0054 00E0     		b	.L6
 145              	.L16:
 146              		.loc 1 42 0
 147 0056 FE26     		movs	r6, #254
 148              	.L6:
 149              	.LVL7:
  43:main.c        ****         indyk[i] |= (uint16) (KOD7[data % 10] & sign);
 150              		.loc 1 43 0
 151 0058 0A21     		movs	r1, #10
 152 005a 2800     		movs	r0, r5
 153 005c FFF7FEFF 		bl	__aeabi_uidivmod
 154              	.LVL8:
 155 0060 89B2     		uxth	r1, r1
 156 0062 2C4B     		ldr	r3, .L18+8
 157 0064 5B5C     		ldrb	r3, [r3, r1]
 158 0066 4A46     		mov	r2, r9
 159 0068 5200     		lsls	r2, r2, #1
 160 006a 3340     		ands	r3, r6
 161 006c 4146     		mov	r1, r8
 162 006e 1943     		orrs	r1, r3
 163 0070 0B00     		movs	r3, r1
 164 0072 2749     		ldr	r1, .L18+4
 165 0074 5352     		strh	r3, [r2, r1]
  44:main.c        ****         if(zero) 
 166              		.loc 1 44 0
 167 0076 029A     		ldr	r2, [sp, #8]
 168 0078 039B     		ldr	r3, [sp, #12]
 169 007a 0098     		ldr	r0, [sp]
 170 007c 0199     		ldr	r1, [sp, #4]
 171 007e FFF7FEFF 		bl	__aeabi_dcmplt
 172              	.LVL9:
 173 0082 0028     		cmp	r0, #0
 174 0084 0AD1     		bne	.L7
 175 0086 16E0     		b	.L8
 176              	.L9:
  45:main.c        ****         {
  46:main.c        ****             while(i < position - 1)
  47:main.c        ****             {
  48:main.c        ****                 indyk[++i] &= 0xFF00;
 177              		.loc 1 48 0
 178 0088 0134     		adds	r4, r4, #1
 179              	.LVL10:
ARM GAS  C:\Users\vanil\AppData\Local\Temp\cc1mf0aa.s 			page 5


 180 008a E4B2     		uxtb	r4, r4
 181              	.LVL11:
 182 008c 2049     		ldr	r1, .L18+4
 183 008e 6000     		lsls	r0, r4, #1
 184 0090 435A     		ldrh	r3, [r0, r1]
 185 0092 FF22     		movs	r2, #255
 186 0094 9343     		bics	r3, r2
  49:main.c        ****                 indyk[i] |= 0x02;
 187              		.loc 1 49 0
 188 0096 0222     		movs	r2, #2
 189 0098 1343     		orrs	r3, r2
 190 009a 4352     		strh	r3, [r0, r1]
 191              	.L7:
  46:main.c        ****             {
 192              		.loc 1 46 0
 193 009c 7B1E     		subs	r3, r7, #1
 194 009e 9C42     		cmp	r4, r3
 195 00a0 F2DB     		blt	.L9
  50:main.c        ****             }
  51:main.c        ****              indyk[++i] &= 0xFF00;
 196              		.loc 1 51 0
 197 00a2 0134     		adds	r4, r4, #1
 198              	.LVL12:
 199 00a4 E4B2     		uxtb	r4, r4
 200              	.LVL13:
 201 00a6 1A49     		ldr	r1, .L18+4
 202 00a8 6000     		lsls	r0, r4, #1
 203 00aa 435A     		ldrh	r3, [r0, r1]
 204 00ac FF22     		movs	r2, #255
 205 00ae 9343     		bics	r3, r2
  52:main.c        ****              indyk[i] |= 0x02 & 0xFE;
 206              		.loc 1 52 0
 207 00b0 0222     		movs	r2, #2
 208 00b2 1343     		orrs	r3, r2
 209 00b4 4352     		strh	r3, [r0, r1]
 210              	.L8:
  53:main.c        ****         }
  54:main.c        ****         data /= 10;
 211              		.loc 1 54 0
 212 00b6 0A21     		movs	r1, #10
 213 00b8 2800     		movs	r0, r5
 214 00ba FFF7FEFF 		bl	__aeabi_uidiv
 215              	.LVL14:
 216 00be 85B2     		uxth	r5, r0
 217              	.LVL15:
  55:main.c        ****         if (data == 0) break;
 218              		.loc 1 55 0
 219 00c0 002D     		cmp	r5, #0
 220 00c2 03D0     		beq	.L10
 221              	.LBE2:
  38:main.c        ****     {
 222              		.loc 1 38 0 discriminator 2
 223 00c4 0134     		adds	r4, r4, #1
 224              	.LVL16:
 225 00c6 E4B2     		uxtb	r4, r4
 226              	.LVL17:
 227              	.L5:
ARM GAS  C:\Users\vanil\AppData\Local\Temp\cc1mf0aa.s 			page 6


  38:main.c        ****     {
 228              		.loc 1 38 0 is_stmt 0 discriminator 1
 229 00c8 032C     		cmp	r4, #3
 230 00ca B4D9     		bls	.L11
 231              	.L10:
  56:main.c        ****     }
  57:main.c        ****     
  58:main.c        ****     if(flag) 
 232              		.loc 1 58 0 is_stmt 1
 233 00cc 5346     		mov	r3, r10
 234 00ce 002B     		cmp	r3, #0
 235 00d0 09D0     		beq	.L12
  59:main.c        ****     {
  60:main.c        ****         indyk[++i] &= 0xFF00;
 236              		.loc 1 60 0
 237 00d2 0134     		adds	r4, r4, #1
 238              	.LVL18:
 239 00d4 E4B2     		uxtb	r4, r4
 240              	.LVL19:
 241 00d6 0E49     		ldr	r1, .L18+4
 242 00d8 6000     		lsls	r0, r4, #1
 243 00da 435A     		ldrh	r3, [r0, r1]
 244 00dc FF22     		movs	r2, #255
 245 00de 9343     		bics	r3, r2
  61:main.c        ****         indyk[i] |= SIGN;
 246              		.loc 1 61 0
 247 00e0 FD22     		movs	r2, #253
 248 00e2 1343     		orrs	r3, r2
 249 00e4 4352     		strh	r3, [r0, r1]
 250              	.L12:
  62:main.c        ****     }
  63:main.c        ****     
  64:main.c        ****     
  65:main.c        ****     for (i++; i < 4; i++)
 251              		.loc 1 65 0
 252 00e6 0134     		adds	r4, r4, #1
 253              	.LVL20:
 254 00e8 E4B2     		uxtb	r4, r4
 255              	.LVL21:
 256 00ea 07E0     		b	.L13
 257              	.L14:
  66:main.c        ****     {
  67:main.c        ****         indyk[i] |= 0x00FF;
 258              		.loc 1 67 0 discriminator 3
 259 00ec 084A     		ldr	r2, .L18+4
 260 00ee 6100     		lsls	r1, r4, #1
 261 00f0 885A     		ldrh	r0, [r1, r2]
 262 00f2 FF23     		movs	r3, #255
 263 00f4 0343     		orrs	r3, r0
 264 00f6 8B52     		strh	r3, [r1, r2]
  65:main.c        ****     {
 265              		.loc 1 65 0 discriminator 3
 266 00f8 0134     		adds	r4, r4, #1
 267              	.LVL22:
 268 00fa E4B2     		uxtb	r4, r4
 269              	.LVL23:
 270              	.L13:
ARM GAS  C:\Users\vanil\AppData\Local\Temp\cc1mf0aa.s 			page 7


  65:main.c        ****     {
 271              		.loc 1 65 0 is_stmt 0 discriminator 1
 272 00fc 032C     		cmp	r4, #3
 273 00fe F5D9     		bls	.L14
  68:main.c        ****     }
  69:main.c        **** }
 274              		.loc 1 69 0 is_stmt 1
 275 0100 04B0     		add	sp, sp, #16
 276              	.LVL24:
 277              		@ sp needed
 278              	.LVL25:
 279              	.LVL26:
 280 0102 1CBC     		pop	{r2, r3, r4}
 281 0104 9046     		mov	r8, r2
 282 0106 9946     		mov	r9, r3
 283 0108 A246     		mov	r10, r4
 284 010a F0BD     		pop	{r4, r5, r6, r7, pc}
 285              	.L19:
 286              		.align	2
 287              	.L18:
 288 010c 00002440 		.word	1076101120
 289 0110 00000000 		.word	.LANCHOR0
 290 0114 00000000 		.word	.LANCHOR2
 291              		.cfi_endproc
 292              	.LFE36:
 293              		.size	out7seg, .-out7seg
 294              		.global	__aeabi_fmul
 295              		.global	__aeabi_f2iz
 296              		.global	__aeabi_i2f
 297              		.global	__aeabi_fcmpeq
 298              		.section	.text.count_tail,"ax",%progbits
 299              		.align	2
 300              		.global	count_tail
 301              		.code	16
 302              		.thumb_func
 303              		.type	count_tail, %function
 304              	count_tail:
 305              	.LFB37:
  70:main.c        **** 
  71:main.c        **** uint16 count_tail(float x)
  72:main.c        **** {
 306              		.loc 1 72 0
 307              		.cfi_startproc
 308              		@ args = 0, pretend = 0, frame = 0
 309              		@ frame_needed = 0, uses_anonymous_args = 0
 310              	.LVL27:
 311 0000 70B5     		push	{r4, r5, r6, lr}
 312              		.cfi_def_cfa_offset 16
 313              		.cfi_offset 4, -16
 314              		.cfi_offset 5, -12
 315              		.cfi_offset 6, -8
 316              		.cfi_offset 14, -4
 317 0002 041C     		adds	r4, r0, #0
 318              	.LVL28:
  73:main.c        ****     uint16 count =0;
 319              		.loc 1 73 0
 320 0004 0025     		movs	r5, #0
ARM GAS  C:\Users\vanil\AppData\Local\Temp\cc1mf0aa.s 			page 8


  74:main.c        ****     while(x!=((int)x))
 321              		.loc 1 74 0
 322 0006 06E0     		b	.L21
 323              	.LVL29:
 324              	.L22:
  75:main.c        ****     {
  76:main.c        ****         count++;
 325              		.loc 1 76 0
 326 0008 0135     		adds	r5, r5, #1
 327              	.LVL30:
 328 000a ADB2     		uxth	r5, r5
 329              	.LVL31:
  77:main.c        ****         x*=10;
 330              		.loc 1 77 0
 331 000c 0849     		ldr	r1, .L23
 332 000e 201C     		adds	r0, r4, #0
 333 0010 FFF7FEFF 		bl	__aeabi_fmul
 334              	.LVL32:
 335 0014 041C     		adds	r4, r0, #0
 336              	.LVL33:
 337              	.L21:
  74:main.c        ****     while(x!=((int)x))
 338              		.loc 1 74 0
 339 0016 201C     		adds	r0, r4, #0
 340 0018 FFF7FEFF 		bl	__aeabi_f2iz
 341              	.LVL34:
 342 001c FFF7FEFF 		bl	__aeabi_i2f
 343              	.LVL35:
 344 0020 011C     		adds	r1, r0, #0
 345 0022 201C     		adds	r0, r4, #0
 346 0024 FFF7FEFF 		bl	__aeabi_fcmpeq
 347              	.LVL36:
 348 0028 0028     		cmp	r0, #0
 349 002a EDD0     		beq	.L22
  78:main.c        ****     }
  79:main.c        ****     return count;
  80:main.c        **** }
 350              		.loc 1 80 0
 351 002c 2800     		movs	r0, r5
 352              		@ sp needed
 353              	.LVL37:
 354              	.LVL38:
 355 002e 70BD     		pop	{r4, r5, r6, pc}
 356              	.L24:
 357              		.align	2
 358              	.L23:
 359 0030 00002041 		.word	1092616192
 360              		.cfi_endproc
 361              	.LFE37:
 362              		.size	count_tail, .-count_tail
 363              		.global	__aeabi_fadd
 364              		.global	__aeabi_fcmplt
 365              		.global	__aeabi_f2d
 366              		.global	__aeabi_dmul
 367              		.global	__aeabi_d2iz
 368              		.section	.text.main,"ax",%progbits
 369              		.align	2
ARM GAS  C:\Users\vanil\AppData\Local\Temp\cc1mf0aa.s 			page 9


 370              		.global	main
 371              		.code	16
 372              		.thumb_func
 373              		.type	main, %function
 374              	main:
 375              	.LFB38:
  81:main.c        **** 
  82:main.c        **** int main(void)
  83:main.c        **** {
 376              		.loc 1 83 0
 377              		.cfi_startproc
 378              		@ args = 0, pretend = 0, frame = 8
 379              		@ frame_needed = 0, uses_anonymous_args = 0
 380 0000 F0B5     		push	{r4, r5, r6, r7, lr}
 381              		.cfi_def_cfa_offset 20
 382              		.cfi_offset 4, -20
 383              		.cfi_offset 5, -16
 384              		.cfi_offset 6, -12
 385              		.cfi_offset 7, -8
 386              		.cfi_offset 14, -4
 387 0002 83B0     		sub	sp, sp, #12
 388              		.cfi_def_cfa_offset 32
 389              	.LVL39:
  84:main.c        ****     float counter = -9;
  85:main.c        ****     float value = 0.6;
  86:main.c        ****     uint16 position = count_tail(value);
 390              		.loc 1 86 0
 391 0004 2848     		ldr	r0, .L32
 392 0006 FFF7FEFF 		bl	count_tail
 393              	.LVL40:
 394 000a 0500     		movs	r5, r0
 395              	.LVL41:
  87:main.c        ****     
  88:main.c        ****     CyGlobalIntEnable; /* Enable global interrupts. */
 396              		.loc 1 88 0
 397              		.syntax divided
 398              	@ 88 "main.c" 1
 399 000c 62B6     		CPSIE   i
 400              	@ 0 "" 2
  89:main.c        ****     
  90:main.c        ****     SPIM_Start();
 401              		.loc 1 90 0
 402              		.thumb
 403              		.syntax unified
 404 000e FFF7FEFF 		bl	SPIM_Start
 405              	.LVL42:
  91:main.c        ****     isr_100Hz_StartEx(isr_100Hz);
 406              		.loc 1 91 0
 407 0012 2648     		ldr	r0, .L32+4
 408 0014 FFF7FEFF 		bl	isr_100Hz_StartEx
 409              	.LVL43:
  84:main.c        ****     float value = 0.6;
 410              		.loc 1 84 0
 411 0018 254C     		ldr	r4, .L32+8
 412              	.LVL44:
 413              	.L26:
 414              	.LBB3:
ARM GAS  C:\Users\vanil\AppData\Local\Temp\cc1mf0aa.s 			page 10


  92:main.c        **** 
  93:main.c        ****     for(;;)
  94:main.c        ****     {
  95:main.c        ****         counter += value;
 415              		.loc 1 95 0
 416 001a 2349     		ldr	r1, .L32
 417 001c 201C     		adds	r0, r4, #0
 418 001e FFF7FEFF 		bl	__aeabi_fadd
 419              	.LVL45:
 420 0022 041C     		adds	r4, r0, #0
 421              	.LVL46:
  96:main.c        ****         if (counter < -999)
 422              		.loc 1 96 0
 423 0024 2349     		ldr	r1, .L32+12
 424 0026 FFF7FEFF 		bl	__aeabi_fcmplt
 425              	.LVL47:
 426 002a 0028     		cmp	r0, #0
 427 002c 00D0     		beq	.L27
  97:main.c        ****         {
  98:main.c        ****             counter = 0;
 428              		.loc 1 98 0
 429 002e 0024     		movs	r4, #0
 430              	.LVL48:
 431              	.L27:
  99:main.c        ****         }
 100:main.c        ****         int flag = counter < 0 ? 1:0;
 432              		.loc 1 100 0
 433 0030 0126     		movs	r6, #1
 434 0032 0021     		movs	r1, #0
 435 0034 201C     		adds	r0, r4, #0
 436 0036 FFF7FEFF 		bl	__aeabi_fcmplt
 437              	.LVL49:
 438 003a 0028     		cmp	r0, #0
 439 003c 00D1     		bne	.L28
 440 003e 0026     		movs	r6, #0
 441              	.L28:
 442 0040 F7B2     		uxtb	r7, r6
 443              	.LVL50:
 101:main.c        ****         out7seg(abs(counter * pow(10, position)), flag, position);
 444              		.loc 1 101 0
 445 0042 2800     		movs	r0, r5
 446 0044 FFF7FEFF 		bl	__aeabi_ui2d
 447              	.LVL51:
 448 0048 0200     		movs	r2, r0
 449 004a 0B00     		movs	r3, r1
 450 004c 0020     		movs	r0, #0
 451 004e 1A49     		ldr	r1, .L32+16
 452 0050 FFF7FEFF 		bl	pow
 453              	.LVL52:
 454 0054 0090     		str	r0, [sp]
 455 0056 0191     		str	r1, [sp, #4]
 456 0058 201C     		adds	r0, r4, #0
 457 005a FFF7FEFF 		bl	__aeabi_f2d
 458              	.LVL53:
 459 005e 009A     		ldr	r2, [sp]
 460 0060 019B     		ldr	r3, [sp, #4]
 461 0062 FFF7FEFF 		bl	__aeabi_dmul
ARM GAS  C:\Users\vanil\AppData\Local\Temp\cc1mf0aa.s 			page 11


 462              	.LVL54:
 463 0066 FFF7FEFF 		bl	__aeabi_d2iz
 464              	.LVL55:
 465 006a C317     		asrs	r3, r0, #31
 466 006c C018     		adds	r0, r0, r3
 467 006e 5840     		eors	r0, r3
 468 0070 EEB2     		uxtb	r6, r5
 469              	.LVL56:
 470 0072 80B2     		uxth	r0, r0
 471 0074 3200     		movs	r2, r6
 472 0076 3900     		movs	r1, r7
 473 0078 FFF7FEFF 		bl	out7seg
 474              	.LVL57:
 102:main.c        ****         if(PIN_SW2_Read() == 0) 
 475              		.loc 1 102 0
 476 007c FFF7FEFF 		bl	PIN_SW2_Read
 477              	.LVL58:
 478 0080 0028     		cmp	r0, #0
 479 0082 04D1     		bne	.L29
 480              	.LVL59:
 103:main.c        ****         {
 104:main.c        ****            counter = 0;
 105:main.c        ****            out7seg(counter, 0, position);
 481              		.loc 1 105 0
 482 0084 3200     		movs	r2, r6
 483 0086 0021     		movs	r1, #0
 484 0088 FFF7FEFF 		bl	out7seg
 485              	.LVL60:
 104:main.c        ****            out7seg(counter, 0, position);
 486              		.loc 1 104 0
 487 008c 0024     		movs	r4, #0
 488              	.LVL61:
 489              	.L29:
 106:main.c        ****         }
 107:main.c        ****         CyDelay(300);
 490              		.loc 1 107 0
 491 008e 9620     		movs	r0, #150
 492 0090 4000     		lsls	r0, r0, #1
 493 0092 FFF7FEFF 		bl	CyDelay
 494              	.LVL62:
 108:main.c        ****         
 109:main.c        ****         if (Pin_B1_Read() == 0)
 495              		.loc 1 109 0
 496 0096 FFF7FEFF 		bl	Pin_B1_Read
 497              	.LVL63:
 498 009a 0028     		cmp	r0, #0
 499 009c BDD1     		bne	.L26
 110:main.c        ****         {
 111:main.c        ****             CyDelay(700);
 500              		.loc 1 111 0
 501 009e AF20     		movs	r0, #175
 502 00a0 8000     		lsls	r0, r0, #2
 503 00a2 FFF7FEFF 		bl	CyDelay
 504              	.LVL64:
 505 00a6 B8E7     		b	.L26
 506              	.L33:
 507              		.align	2
ARM GAS  C:\Users\vanil\AppData\Local\Temp\cc1mf0aa.s 			page 12


 508              	.L32:
 509 00a8 9A99193F 		.word	1058642330
 510 00ac 00000000 		.word	isr_100Hz
 511 00b0 000010C1 		.word	-1055916032
 512 00b4 00C079C4 		.word	-998653952
 513 00b8 00002440 		.word	1076101120
 514              	.LBE3:
 515              		.cfi_endproc
 516              	.LFE38:
 517              		.size	main, .-main
 518              		.global	DOT
 519              		.global	SIGN
 520              		.global	KOD7
 521              		.global	indyk
 522              		.section	.rodata
 523              		.align	2
 524              		.set	.LANCHOR2,. + 0
 525              		.type	KOD7, %object
 526              		.size	KOD7, 10
 527              	KOD7:
 528 0000 03       		.byte	3
 529 0001 9F       		.byte	-97
 530 0002 25       		.byte	37
 531 0003 0D       		.byte	13
 532 0004 99       		.byte	-103
 533 0005 49       		.byte	73
 534 0006 41       		.byte	65
 535 0007 1F       		.byte	31
 536 0008 01       		.byte	1
 537 0009 09       		.byte	9
 538              		.type	DOT, %object
 539              		.size	DOT, 1
 540              	DOT:
 541 000a 7F       		.byte	127
 542              		.type	SIGN, %object
 543              		.size	SIGN, 1
 544              	SIGN:
 545 000b FD       		.byte	-3
 546              		.data
 547              		.align	2
 548              		.set	.LANCHOR0,. + 0
 549              		.type	indyk, %object
 550              		.size	indyk, 8
 551              	indyk:
 552 0000 FF10     		.short	4351
 553 0002 FF20     		.short	8447
 554 0004 FF40     		.short	16639
 555 0006 FF80     		.short	-32513
 556              		.bss
 557              		.set	.LANCHOR1,. + 0
 558              		.type	N_indyk.6474, %object
 559              		.size	N_indyk.6474, 1
 560              	N_indyk.6474:
 561 0000 00       		.space	1
 562              		.text
 563              	.Letext0:
 564              		.file 2 "Generated_Source\\PSoC4/cytypes.h"
ARM GAS  C:\Users\vanil\AppData\Local\Temp\cc1mf0aa.s 			page 13


 565              		.file 3 "Generated_Source\\PSoC4/SPIM.h"
 566              		.file 4 "Generated_Source\\PSoC4/PIN_SW2.h"
 567              		.file 5 "Generated_Source\\PSoC4/CyLib.h"
 568              		.file 6 "Generated_Source\\PSoC4/Pin_B1.h"
 569              		.file 7 "Generated_Source\\PSoC4/isr_100Hz.h"
 570              		.file 8 "d:\\programs\\psoccreator\\psoc creator\\4.2\\psoc creator\\import\\gnu\\arm\\5.4.1\\arm-