ARM GAS  C:\Users\vanil\AppData\Local\Temp\ccTmpsGD.s 			page 1


   1              		.syntax unified
   2              		.cpu cortex-m0
   3              		.fpu softvfp
   4              		.eabi_attribute 20, 1
   5              		.eabi_attribute 21, 1
   6              		.eabi_attribute 23, 3
   7              		.eabi_attribute 24, 1
   8              		.eabi_attribute 25, 1
   9              		.eabi_attribute 26, 1
  10              		.eabi_attribute 30, 1
  11              		.eabi_attribute 34, 0
  12              		.eabi_attribute 18, 4
  13              		.thumb
  14              		.syntax unified
  15              		.file	"main.c"
  16              		.text
  17              	.Ltext0:
  18              		.cfi_sections	.debug_frame
  19              		.section	.text.main,"ax",%progbits
  20              		.align	2
  21              		.global	main
  22              		.code	16
  23              		.thumb_func
  24              		.type	main, %function
  25              	main:
  26              	.LFB36:
  27              		.file 1 "main.c"
   1:main.c        **** /* ========================================
   2:main.c        ****  *
   3:main.c        ****  * Copyright YOUR COMPANY, THE YEAR
   4:main.c        ****  * All Rights Reserved
   5:main.c        ****  * UNPUBLISHED, LICENSED SOFTWARE.
   6:main.c        ****  *
   7:main.c        ****  * CONFIDENTIAL AND PROPRIETARY INFORMATION
   8:main.c        ****  * WHICH IS THE PROPERTY OF your company.
   9:main.c        ****  *
  10:main.c        ****  * ========================================
  11:main.c        **** */
  12:main.c        **** #include <project.h>
  13:main.c        **** #include <stdio.h>
  14:main.c        **** 
  15:main.c        **** char TEXT_BUF[20];
  16:main.c        **** 
  17:main.c        **** 
  18:main.c        **** int main()
  19:main.c        **** {
  28              		.loc 1 19 0
  29              		.cfi_startproc
  30              		@ args = 0, pretend = 0, frame = 0
  31              		@ frame_needed = 0, uses_anonymous_args = 0
  32 0000 70B5     		push	{r4, r5, r6, lr}
  33              		.cfi_def_cfa_offset 16
  34              		.cfi_offset 4, -16
  35              		.cfi_offset 5, -12
  36              		.cfi_offset 6, -8
  37              		.cfi_offset 14, -4
  38              	.LVL0:
ARM GAS  C:\Users\vanil\AppData\Local\Temp\ccTmpsGD.s 			page 2


  20:main.c        ****     uint8 i = 0;
  21:main.c        ****     
  22:main.c        ****     CyGlobalIntEnable;
  39              		.loc 1 22 0
  40              		.syntax divided
  41              	@ 22 "main.c" 1
  42 0002 62B6     		CPSIE   i
  43              	@ 0 "" 2
  23:main.c        **** 
  24:main.c        ****     /* Start SCB UART TX+RX operation */    
  25:main.c        ****     UART_Start(); 
  44              		.loc 1 25 0
  45              		.thumb
  46              		.syntax unified
  47 0004 FFF7FEFF 		bl	UART_Start
  48              	.LVL1:
  26:main.c        ****     
  27:main.c        ****     CyDelay(100);
  49              		.loc 1 27 0
  50 0008 6420     		movs	r0, #100
  51 000a FFF7FEFF 		bl	CyDelay
  52              	.LVL2:
  28:main.c        ****     
  29:main.c        **** 	/* Transmit String through UART TX Line */
  30:main.c        **** 	UART_UartPutString("CY8CKIT-042 USB-UART");
  53              		.loc 1 30 0
  54 000e 0A48     		ldr	r0, .L3
  55 0010 FFF7FEFF 		bl	UART_UartPutString
  56              	.LVL3:
  20:main.c        ****     
  57              		.loc 1 20 0
  58 0014 0024     		movs	r4, #0
  59              	.LVL4:
  60              	.L2:
  31:main.c        ****     
  32:main.c        ****     for(;;)
  33:main.c        ****     {
  34:main.c        ****         i++;
  61              		.loc 1 34 0 discriminator 1
  62 0016 0134     		adds	r4, r4, #1
  63              	.LVL5:
  64 0018 E4B2     		uxtb	r4, r4
  65              	.LVL6:
  35:main.c        ****         sprintf(TEXT_BUF,"%d\r\n",i);
  66              		.loc 1 35 0 discriminator 1
  67 001a 084D     		ldr	r5, .L3+4
  68 001c 2200     		movs	r2, r4
  69 001e 0849     		ldr	r1, .L3+8
  70 0020 2800     		movs	r0, r5
  71 0022 FFF7FEFF 		bl	sprintf
  72              	.LVL7:
  36:main.c        ****         UART_UartPutString(TEXT_BUF);
  73              		.loc 1 36 0 discriminator 1
  74 0026 2800     		movs	r0, r5
  75 0028 FFF7FEFF 		bl	UART_UartPutString
  76              	.LVL8:
  37:main.c        ****         CyDelay(1000);        
ARM GAS  C:\Users\vanil\AppData\Local\Temp\ccTmpsGD.s 			page 3


  77              		.loc 1 37 0 discriminator 1
  78 002c FA20     		movs	r0, #250
  79 002e 8000     		lsls	r0, r0, #2
  80 0030 FFF7FEFF 		bl	CyDelay
  81              	.LVL9:
  82 0034 EFE7     		b	.L2
  83              	.L4:
  84 0036 C046     		.align	2
  85              	.L3:
  86 0038 00000000 		.word	.LC0
  87 003c 00000000 		.word	TEXT_BUF
  88 0040 18000000 		.word	.LC2
  89              		.cfi_endproc
  90              	.LFE36:
  91              		.size	main, .-main
  92              		.comm	TEXT_BUF,20,4
  93              		.section	.rodata.str1.4,"aMS",%progbits,1
  94              		.align	2
  95              	.LC0:
  96 0000 43593843 		.ascii	"CY8CKIT-042 USB-UART\000"
  96      4B49542D 
  96      30343220 
  96      5553422D 
  96      55415254 
  97 0015 000000   		.space	3
  98              	.LC2:
  99 0018 25640D0A 		.ascii	"%d\015\012\000"
  99      00
 100              		.text
 101              	.Letext0:
 102              		.file 2 "Generated_Source\\PSoC4/UART.h"
 103              		.file 3 "Generated_Source\\PSoC4/CyLib.h"
 104              		.file 4 "Generated_Source\\PSoC4/UART_SPI_UART.h"
 105              		.file 5 "d:\\programs\\psoccreator\\psoc creator\\4.2\\psoc creator\\import\\gnu\\arm\\5.4.1\\arm-
 106              		.file 6 "Generated_Source\\PSoC4/cytypes.h"