ARM GAS  C:\Users\vanil\AppData\Local\Temp\cckdrU5k.s 			page 1


   1              		.syntax unified
   2              		.cpu cortex-m0
   3              		.fpu softvfp
   4              		.eabi_attribute 20, 1
   5              		.eabi_attribute 21, 1
   6              		.eabi_attribute 23, 3
   7              		.eabi_attribute 24, 1
   8              		.eabi_attribute 25, 1
   9              		.eabi_attribute 26, 1
  10              		.eabi_attribute 30, 1
  11              		.eabi_attribute 34, 0
  12              		.eabi_attribute 18, 4
  13              		.thumb
  14              		.syntax unified
  15              		.file	"main.c"
  16              		.text
  17              	.Ltext0:
  18              		.cfi_sections	.debug_frame
  19              		.section	.text.isr_100Hz,"ax",%progbits
  20              		.align	2
  21              		.global	isr_100Hz
  22              		.code	16
  23              		.thumb_func
  24              		.type	isr_100Hz, %function
  25              	isr_100Hz:
  26              	.LFB36:
  27              		.file 1 "main.c"
   1:main.c        **** /* ========================================
   2:main.c        ****  *
   3:main.c        ****  * Copyright YOUR COMPANY, THE YEAR
   4:main.c        ****  * All Rights Reserved
   5:main.c        ****  * UNPUBLISHED, LICENSED SOFTWARE.
   6:main.c        ****  *
   7:main.c        ****  * CONFIDENTIAL AND PROPRIETARY INFORMATION
   8:main.c        ****  * WHICH IS THE PROPERTY OF your company.
   9:main.c        ****  *
  10:main.c        ****  * ========================================
  11:main.c        **** */
  12:main.c        **** #include <project.h>
  13:main.c        **** #include <stdio.h>
  14:main.c        **** #include <stdlib.h>
  15:main.c        **** #define LED_ON  0
  16:main.c        **** #define LED_OFF 1
  17:main.c        **** 
  18:main.c        **** 
  19:main.c        **** void out7seg(uint16, uint8);
  20:main.c        **** 
  21:main.c        **** uint16 indyk[4] = {0x10FF,0x20FF,0x40FF,0x80FF};
  22:main.c        **** const uint8 KOD7[10] = {0x03,0x9F,0x25,0x0D,0x99,0x49,0x41,0x1F,0x01,0x09};
  23:main.c        **** 
  24:main.c        **** CY_ISR(isr_100Hz)
  25:main.c        **** {
  28              		.loc 1 25 0
  29              		.cfi_startproc
  30              		@ args = 0, pretend = 0, frame = 0
  31              		@ frame_needed = 0, uses_anonymous_args = 0
  32 0000 10B5     		push	{r4, lr}
ARM GAS  C:\Users\vanil\AppData\Local\Temp\cckdrU5k.s 			page 2


  33              		.cfi_def_cfa_offset 8
  34              		.cfi_offset 4, -8
  35              		.cfi_offset 14, -4
  26:main.c        ****     static uint8 N_indyk = 0u;
  27:main.c        ****     
  28:main.c        ****     SPIM_WriteTxData(indyk[N_indyk]);
  36              		.loc 1 28 0
  37 0002 064C     		ldr	r4, .L2
  38 0004 2378     		ldrb	r3, [r4]
  39 0006 5B00     		lsls	r3, r3, #1
  40 0008 054A     		ldr	r2, .L2+4
  41 000a 985A     		ldrh	r0, [r3, r2]
  42 000c FFF7FEFF 		bl	SPIM_WriteTxData
  43              	.LVL0:
  29:main.c        ****     N_indyk++;
  44              		.loc 1 29 0
  45 0010 2378     		ldrb	r3, [r4]
  46 0012 0133     		adds	r3, r3, #1
  30:main.c        ****     N_indyk &= 3;    
  47              		.loc 1 30 0
  48 0014 0322     		movs	r2, #3
  49 0016 1340     		ands	r3, r2
  50 0018 2370     		strb	r3, [r4]
  31:main.c        **** }
  51              		.loc 1 31 0
  52              		@ sp needed
  53 001a 10BD     		pop	{r4, pc}
  54              	.L3:
  55              		.align	2
  56              	.L2:
  57 001c 00000000 		.word	.LANCHOR1
  58 0020 00000000 		.word	.LANCHOR0
  59              		.cfi_endproc
  60              	.LFE36:
  61              		.size	isr_100Hz, .-isr_100Hz
  62              		.global	__aeabi_uidivmod
  63              		.global	__aeabi_uidiv
  64              		.section	.text.out7seg,"ax",%progbits
  65              		.align	2
  66              		.global	out7seg
  67              		.code	16
  68              		.thumb_func
  69              		.type	out7seg, %function
  70              	out7seg:
  71              	.LFB37:
  32:main.c        **** 
  33:main.c        **** void out7seg(uint16 data, uint8 point)
  34:main.c        **** {
  72              		.loc 1 34 0
  73              		.cfi_startproc
  74              		@ args = 0, pretend = 0, frame = 0
  75              		@ frame_needed = 0, uses_anonymous_args = 0
  76              	.LVL1:
  77 0000 F8B5     		push	{r3, r4, r5, r6, r7, lr}
  78              		.cfi_def_cfa_offset 24
  79              		.cfi_offset 3, -24
  80              		.cfi_offset 4, -20
ARM GAS  C:\Users\vanil\AppData\Local\Temp\cckdrU5k.s 			page 3


  81              		.cfi_offset 5, -16
  82              		.cfi_offset 6, -12
  83              		.cfi_offset 7, -8
  84              		.cfi_offset 14, -4
  85 0002 4F46     		mov	r7, r9
  86 0004 4646     		mov	r6, r8
  87 0006 C0B4     		push	{r6, r7}
  88              		.cfi_def_cfa_offset 32
  89              		.cfi_offset 8, -32
  90              		.cfi_offset 9, -28
  91 0008 0500     		movs	r5, r0
  92 000a 8846     		mov	r8, r1
  93              	.LVL2:
  35:main.c        ****     uint8 i;
  36:main.c        ****     for (i = 0; i < 4; i++)
  94              		.loc 1 36 0
  95 000c 0024     		movs	r4, #0
  96 000e 1EE0     		b	.L5
  97              	.LVL3:
  98              	.L8:
  37:main.c        ****     {
  38:main.c        ****         indyk[i] &= 0xFF00;
  99              		.loc 1 38 0
 100 0010 394F     		ldr	r7, .L14
 101 0012 6300     		lsls	r3, r4, #1
 102 0014 9946     		mov	r9, r3
 103 0016 DE5B     		ldrh	r6, [r3, r7]
 104 0018 FF23     		movs	r3, #255
 105 001a 9E43     		bics	r6, r3
 106 001c 4B46     		mov	r3, r9
 107 001e DE53     		strh	r6, [r3, r7]
  39:main.c        ****         indyk[i] |= (uint16)KOD7[data % 10];  
 108              		.loc 1 39 0
 109 0020 0A21     		movs	r1, #10
 110 0022 2800     		movs	r0, r5
 111 0024 FFF7FEFF 		bl	__aeabi_uidivmod
 112              	.LVL4:
 113 0028 89B2     		uxth	r1, r1
 114 002a 344B     		ldr	r3, .L14+4
 115 002c 5B5C     		ldrb	r3, [r3, r1]
 116 002e 1E43     		orrs	r6, r3
 117 0030 4B46     		mov	r3, r9
 118 0032 DE53     		strh	r6, [r3, r7]
  40:main.c        ****         if (i == point){
 119              		.loc 1 40 0
 120 0034 4445     		cmp	r4, r8
 121 0036 01D1     		bne	.L6
  41:main.c        ****             indyk[i]--;
 122              		.loc 1 41 0
 123 0038 013E     		subs	r6, r6, #1
 124 003a DE53     		strh	r6, [r3, r7]
 125              	.L6:
  42:main.c        ****         }
  43:main.c        ****         data /= 10; 
 126              		.loc 1 43 0
 127 003c 0A21     		movs	r1, #10
 128 003e 2800     		movs	r0, r5
ARM GAS  C:\Users\vanil\AppData\Local\Temp\cckdrU5k.s 			page 4


 129 0040 FFF7FEFF 		bl	__aeabi_uidiv
 130              	.LVL5:
 131 0044 85B2     		uxth	r5, r0
 132              	.LVL6:
  44:main.c        ****         if (data == 0) break;
 133              		.loc 1 44 0
 134 0046 002D     		cmp	r5, #0
 135 0048 03D0     		beq	.L7
  36:main.c        ****     {
 136              		.loc 1 36 0 discriminator 2
 137 004a 0134     		adds	r4, r4, #1
 138              	.LVL7:
 139 004c E4B2     		uxtb	r4, r4
 140              	.LVL8:
 141              	.L5:
  36:main.c        ****     {
 142              		.loc 1 36 0 is_stmt 0 discriminator 1
 143 004e 032C     		cmp	r4, #3
 144 0050 DED9     		bls	.L8
 145              	.L7:
  45:main.c        ****     }
  46:main.c        ****     
  47:main.c        ****     if(point == i + 1){
 146              		.loc 1 47 0 is_stmt 1
 147 0052 4246     		mov	r2, r8
 148 0054 631C     		adds	r3, r4, #1
 149 0056 9A42     		cmp	r2, r3
 150 0058 09D1     		bne	.L9
  48:main.c        ****             indyk[point] &= 0xFF00;
 151              		.loc 1 48 0
 152 005a 2748     		ldr	r0, .L14
 153 005c 5500     		lsls	r5, r2, #1
 154              	.LVL9:
 155 005e 2B5A     		ldrh	r3, [r5, r0]
 156 0060 FF21     		movs	r1, #255
 157 0062 8B43     		bics	r3, r1
  49:main.c        ****             indyk[point] |= (uint16)KOD7[0] - 1;
 158              		.loc 1 49 0
 159 0064 0221     		movs	r1, #2
 160 0066 0B43     		orrs	r3, r1
 161 0068 2B52     		strh	r3, [r5, r0]
  50:main.c        ****             i++;
 162              		.loc 1 50 0
 163 006a 0134     		adds	r4, r4, #1
 164              	.LVL10:
 165 006c E4B2     		uxtb	r4, r4
 166              	.LVL11:
 167              	.L9:
  51:main.c        ****         }
  52:main.c        ****     if(point == i + 2){
 168              		.loc 1 52 0
 169 006e A31C     		adds	r3, r4, #2
 170 0070 9A42     		cmp	r2, r3
 171 0072 12D1     		bne	.L10
  53:main.c        ****             indyk[point] &= 0xFF00;
 172              		.loc 1 53 0
 173 0074 204B     		ldr	r3, .L14
ARM GAS  C:\Users\vanil\AppData\Local\Temp\cckdrU5k.s 			page 5


 174 0076 4146     		mov	r1, r8
 175 0078 4E00     		lsls	r6, r1, #1
 176 007a F15A     		ldrh	r1, [r6, r3]
 177 007c FF25     		movs	r5, #255
 178 007e A943     		bics	r1, r5
  54:main.c        ****             indyk[point] |= (uint16)KOD7[0] - 1;
 179              		.loc 1 54 0
 180 0080 0220     		movs	r0, #2
 181 0082 0143     		orrs	r1, r0
 182 0084 F152     		strh	r1, [r6, r3]
  55:main.c        ****             
  56:main.c        ****             indyk[point-1] &= 0xFF00;
 183              		.loc 1 56 0
 184 0086 4146     		mov	r1, r8
 185 0088 0139     		subs	r1, r1, #1
 186 008a 4900     		lsls	r1, r1, #1
 187 008c C85A     		ldrh	r0, [r1, r3]
 188 008e A843     		bics	r0, r5
  57:main.c        ****             indyk[point-1] |= (uint16)KOD7[0];
 189              		.loc 1 57 0
 190 0090 0325     		movs	r5, #3
 191 0092 2843     		orrs	r0, r5
 192 0094 C852     		strh	r0, [r1, r3]
  58:main.c        ****             
  59:main.c        ****             i+=2;
 193              		.loc 1 59 0
 194 0096 0234     		adds	r4, r4, #2
 195              	.LVL12:
 196 0098 E4B2     		uxtb	r4, r4
 197              	.LVL13:
 198              	.L10:
  60:main.c        ****             
  61:main.c        ****         }
  62:main.c        ****     if(point == i + 3){
 199              		.loc 1 62 0
 200 009a E31C     		adds	r3, r4, #3
 201 009c 9A42     		cmp	r2, r3
 202 009e 19D1     		bne	.L11
  63:main.c        ****             indyk[point] &= 0xFF00;
 203              		.loc 1 63 0
 204 00a0 154A     		ldr	r2, .L14
 205 00a2 4346     		mov	r3, r8
 206 00a4 5800     		lsls	r0, r3, #1
 207 00a6 835A     		ldrh	r3, [r0, r2]
 208 00a8 FF25     		movs	r5, #255
 209 00aa AB43     		bics	r3, r5
  64:main.c        ****             indyk[point] |= (uint16)KOD7[0] - 1;
 210              		.loc 1 64 0
 211 00ac 0221     		movs	r1, #2
 212 00ae 0B43     		orrs	r3, r1
 213 00b0 8352     		strh	r3, [r0, r2]
  65:main.c        ****             
  66:main.c        ****             indyk[point-1] &= 0xFF00;
 214              		.loc 1 66 0
 215 00b2 4346     		mov	r3, r8
 216 00b4 581E     		subs	r0, r3, #1
 217 00b6 4000     		lsls	r0, r0, #1
ARM GAS  C:\Users\vanil\AppData\Local\Temp\cckdrU5k.s 			page 6


 218 00b8 835A     		ldrh	r3, [r0, r2]
 219 00ba AB43     		bics	r3, r5
  67:main.c        ****             indyk[point-1] |= (uint16)KOD7[0];
 220              		.loc 1 67 0
 221 00bc 0321     		movs	r1, #3
 222 00be 0B43     		orrs	r3, r1
 223 00c0 8352     		strh	r3, [r0, r2]
  68:main.c        ****             
  69:main.c        ****             indyk[point-2] &= 0xFF00;
 224              		.loc 1 69 0
 225 00c2 4346     		mov	r3, r8
 226 00c4 023B     		subs	r3, r3, #2
 227 00c6 5B00     		lsls	r3, r3, #1
 228 00c8 985A     		ldrh	r0, [r3, r2]
 229 00ca A843     		bics	r0, r5
  70:main.c        ****             indyk[point-2] |= (uint16)KOD7[0];
 230              		.loc 1 70 0
 231 00cc 0143     		orrs	r1, r0
 232 00ce 9952     		strh	r1, [r3, r2]
  71:main.c        ****             i+=3;
 233              		.loc 1 71 0
 234 00d0 0334     		adds	r4, r4, #3
 235              	.LVL14:
 236 00d2 E4B2     		uxtb	r4, r4
 237              	.LVL15:
 238              	.L11:
  72:main.c        ****             
  73:main.c        ****         }
  74:main.c        **** 
  75:main.c        ****     for (i++; i < 4; i++)
 239              		.loc 1 75 0
 240 00d4 0134     		adds	r4, r4, #1
 241              	.LVL16:
 242 00d6 E3B2     		uxtb	r3, r4
 243              	.LVL17:
 244 00d8 07E0     		b	.L12
 245              	.L13:
  76:main.c        ****     {
  77:main.c        ****         indyk[i] |= 0x00FF;
 246              		.loc 1 77 0 discriminator 3
 247 00da 0749     		ldr	r1, .L14
 248 00dc 5800     		lsls	r0, r3, #1
 249 00de 445A     		ldrh	r4, [r0, r1]
 250 00e0 FF22     		movs	r2, #255
 251 00e2 2243     		orrs	r2, r4
 252 00e4 4252     		strh	r2, [r0, r1]
  75:main.c        ****     {
 253              		.loc 1 75 0 discriminator 3
 254 00e6 0133     		adds	r3, r3, #1
 255              	.LVL18:
 256 00e8 DBB2     		uxtb	r3, r3
 257              	.LVL19:
 258              	.L12:
  75:main.c        ****     {
 259              		.loc 1 75 0 is_stmt 0 discriminator 1
 260 00ea 032B     		cmp	r3, #3
 261 00ec F5D9     		bls	.L13
ARM GAS  C:\Users\vanil\AppData\Local\Temp\cckdrU5k.s 			page 7


  78:main.c        ****     }
  79:main.c        **** }
 262              		.loc 1 79 0 is_stmt 1
 263              		@ sp needed
 264 00ee 0CBC     		pop	{r2, r3}
 265 00f0 9046     		mov	r8, r2
 266 00f2 9946     		mov	r9, r3
 267 00f4 F8BD     		pop	{r3, r4, r5, r6, r7, pc}
 268              	.L15:
 269 00f6 C046     		.align	2
 270              	.L14:
 271 00f8 00000000 		.word	.LANCHOR0
 272 00fc 00000000 		.word	.LANCHOR2
 273              		.cfi_endproc
 274              	.LFE37:
 275              		.size	out7seg, .-out7seg
 276              		.section	.text.main,"ax",%progbits
 277              		.align	2
 278              		.global	main
 279              		.code	16
 280              		.thumb_func
 281              		.type	main, %function
 282              	main:
 283              	.LFB38:
  80:main.c        **** 
  81:main.c        **** int main()
  82:main.c        **** {
 284              		.loc 1 82 0
 285              		.cfi_startproc
 286              		@ args = 0, pretend = 0, frame = 16
 287              		@ frame_needed = 0, uses_anonymous_args = 0
 288 0000 F0B5     		push	{r4, r5, r6, r7, lr}
 289              		.cfi_def_cfa_offset 20
 290              		.cfi_offset 4, -20
 291              		.cfi_offset 5, -16
 292              		.cfi_offset 6, -12
 293              		.cfi_offset 7, -8
 294              		.cfi_offset 14, -4
 295 0002 85B0     		sub	sp, sp, #20
 296              		.cfi_def_cfa_offset 40
  83:main.c        ****     uint8 ch;
  84:main.c        ****     char array[5];
  85:main.c        ****     uint8 counter;
  86:main.c        ****     uint16 number;
  87:main.c        ****     
  88:main.c        ****     CyGlobalIntEnable;
 297              		.loc 1 88 0
 298              		.syntax divided
 299              	@ 88 "main.c" 1
 300 0004 62B6     		CPSIE   i
 301              	@ 0 "" 2
  89:main.c        **** 
  90:main.c        ****     SPIM_Start();
 302              		.loc 1 90 0
 303              		.thumb
 304              		.syntax unified
 305 0006 FFF7FEFF 		bl	SPIM_Start
ARM GAS  C:\Users\vanil\AppData\Local\Temp\cckdrU5k.s 			page 8


 306              	.LVL20:
  91:main.c        ****     isr_100Hz_StartEx(isr_100Hz);
 307              		.loc 1 91 0
 308 000a 1E48     		ldr	r0, .L24
 309 000c FFF7FEFF 		bl	isr_100Hz_StartEx
 310              	.LVL21:
  92:main.c        ****                     
  93:main.c        ****     /* Start SCB UART TX+RX operation */    
  94:main.c        ****     UART_Start(); 
 311              		.loc 1 94 0
 312 0010 FFF7FEFF 		bl	UART_Start
 313              	.LVL22:
  95:main.c        ****     
  96:main.c        ****     CyDelay(1000);
 314              		.loc 1 96 0
 315 0014 FA20     		movs	r0, #250
 316 0016 8000     		lsls	r0, r0, #2
 317 0018 FFF7FEFF 		bl	CyDelay
 318              	.LVL23:
  97:main.c        ****     
  98:main.c        **** 	UART_UartPutString("LAB 3.2 \r\n");
 319              		.loc 1 98 0
 320 001c 1A48     		ldr	r0, .L24+4
 321 001e FFF7FEFF 		bl	UART_UartPutString
 322              	.LVL24:
 323              	.L22:
 324              	.LBB2:
  99:main.c        ****     
 100:main.c        ****    for(;;)
 101:main.c        ****     {
 102:main.c        ****         counter = 0;
 103:main.c        ****         uint8 i = 0, dot = 0,
 104:main.c        ****             index = 0;
 325              		.loc 1 104 0
 326 0022 0025     		movs	r5, #0
 103:main.c        ****             index = 0;
 327              		.loc 1 103 0
 328 0024 0023     		movs	r3, #0
 329 0026 0193     		str	r3, [sp, #4]
 330 0028 0027     		movs	r7, #0
 102:main.c        ****         uint8 i = 0, dot = 0,
 331              		.loc 1 102 0
 332 002a 0026     		movs	r6, #0
 333 002c 01E0     		b	.L17
 334              	.LVL25:
 335              	.L23:
 105:main.c        ****         while(1) {
 106:main.c        ****             ch = UART_UartGetChar();
 107:main.c        ****             if (!ch) {
 108:main.c        ****                 continue;
 109:main.c        ****             }
 110:main.c        ****             if(ch == '\r') {
 111:main.c        ****                 array[i] = '\0';
 112:main.c        ****                 break;
 113:main.c        ****             }
 114:main.c        ****             if(ch == '.'){
 115:main.c        ****                 index = 1;
ARM GAS  C:\Users\vanil\AppData\Local\Temp\cckdrU5k.s 			page 9


 116:main.c        ****                 dot = i;
 336              		.loc 1 116 0
 337 002e 0197     		str	r7, [sp, #4]
 338              	.LVL26:
 115:main.c        ****                 dot = i;
 339              		.loc 1 115 0
 340 0030 0125     		movs	r5, #1
 341              	.LVL27:
 342              	.L17:
 106:main.c        ****             if (!ch) {
 343              		.loc 1 106 0
 344 0032 FFF7FEFF 		bl	UART_UartGetChar
 345              	.LVL28:
 346 0036 0400     		movs	r4, r0
 347 0038 C3B2     		uxtb	r3, r0
 348              	.LVL29:
 107:main.c        ****                 continue;
 349              		.loc 1 107 0
 350 003a 002B     		cmp	r3, #0
 351 003c F9D0     		beq	.L17
 110:main.c        ****                 array[i] = '\0';
 352              		.loc 1 110 0
 353 003e 0D2B     		cmp	r3, #13
 354 0040 0ED1     		bne	.L19
 111:main.c        ****                 break;
 355              		.loc 1 111 0
 356 0042 0023     		movs	r3, #0
 357              	.LVL30:
 358 0044 02AA     		add	r2, sp, #8
 359 0046 D355     		strb	r3, [r2, r7]
 117:main.c        ****                 continue;
 118:main.c        ****             }
 119:main.c        ****             if(counter != 4){
 120:main.c        ****                 array[(i++)] = ch;
 121:main.c        ****                 counter++;
 122:main.c        ****             }
 123:main.c        ****         }
 124:main.c        ****         
 125:main.c        ****         number = atoi(array);
 360              		.loc 1 125 0
 361 0048 1000     		movs	r0, r2
 362              	.LVL31:
 363 004a FFF7FEFF 		bl	atoi
 364              	.LVL32:
 365 004e 86B2     		uxth	r6, r0
 366              	.LVL33:
 126:main.c        ****         
 127:main.c        ****         UART_UartPutChar(ch);
 367              		.loc 1 127 0
 368 0050 FF20     		movs	r0, #255
 369 0052 2040     		ands	r0, r4
 370 0054 FFF7FEFF 		bl	UART_SpiUartWriteTxData
 371              	.LVL34:
 128:main.c        ****         
 129:main.c        ****         if(index == 1){
 372              		.loc 1 129 0
 373 0058 012D     		cmp	r5, #1
ARM GAS  C:\Users\vanil\AppData\Local\Temp\cckdrU5k.s 			page 10


 374 005a 0CD0     		beq	.L20
 130:main.c        ****             dot = i - dot; 
 131:main.c        ****         }
 132:main.c        ****         else{
 133:main.c        ****             dot = 0;
 375              		.loc 1 133 0
 376 005c 0021     		movs	r1, #0
 377 005e 0DE0     		b	.L21
 378              	.LVL35:
 379              	.L19:
 114:main.c        ****                 index = 1;
 380              		.loc 1 114 0
 381 0060 2E2B     		cmp	r3, #46
 382 0062 E4D0     		beq	.L23
 119:main.c        ****                 array[(i++)] = ch;
 383              		.loc 1 119 0
 384 0064 042E     		cmp	r6, #4
 385 0066 E4D0     		beq	.L17
 120:main.c        ****                 counter++;
 386              		.loc 1 120 0
 387 0068 7A1C     		adds	r2, r7, #1
 388              	.LVL36:
 389 006a 02A9     		add	r1, sp, #8
 390 006c CB55     		strb	r3, [r1, r7]
 121:main.c        ****             }
 391              		.loc 1 121 0
 392 006e 0136     		adds	r6, r6, #1
 393              	.LVL37:
 394 0070 F6B2     		uxtb	r6, r6
 395              	.LVL38:
 120:main.c        ****                 counter++;
 396              		.loc 1 120 0
 397 0072 D7B2     		uxtb	r7, r2
 398 0074 DDE7     		b	.L17
 399              	.LVL39:
 400              	.L20:
 130:main.c        ****         }
 401              		.loc 1 130 0
 402 0076 019B     		ldr	r3, [sp, #4]
 403 0078 F91A     		subs	r1, r7, r3
 404 007a C9B2     		uxtb	r1, r1
 405              	.LVL40:
 406              	.L21:
 134:main.c        ****         }
 135:main.c        ****         
 136:main.c        ****         out7seg(number,dot);
 407              		.loc 1 136 0
 408 007c 3000     		movs	r0, r6
 409 007e FFF7FEFF 		bl	out7seg
 410              	.LVL41:
 411              	.LBE2:
 137:main.c        ****     }
 412              		.loc 1 137 0
 413 0082 CEE7     		b	.L22
 414              	.L25:
 415              		.align	2
 416              	.L24:
ARM GAS  C:\Users\vanil\AppData\Local\Temp\cckdrU5k.s 			page 11


 417 0084 00000000 		.word	isr_100Hz
 418 0088 00000000 		.word	.LC5
 419              		.cfi_endproc
 420              	.LFE38:
 421              		.size	main, .-main
 422              		.global	KOD7
 423              		.global	indyk
 424              		.section	.rodata
 425              		.align	2
 426              		.set	.LANCHOR2,. + 0
 427              		.type	KOD7, %object
 428              		.size	KOD7, 10
 429              	KOD7:
 430 0000 03       		.byte	3
 431 0001 9F       		.byte	-97
 432 0002 25       		.byte	37
 433 0003 0D       		.byte	13
 434 0004 99       		.byte	-103
 435 0005 49       		.byte	73
 436 0006 41       		.byte	65
 437 0007 1F       		.byte	31
 438 0008 01       		.byte	1
 439 0009 09       		.byte	9
 440              		.data
 441              		.align	2
 442              		.set	.LANCHOR0,. + 0
 443              		.type	indyk, %object
 444              		.size	indyk, 8
 445              	indyk:
 446 0000 FF10     		.short	4351
 447 0002 FF20     		.short	8447
 448 0004 FF40     		.short	16639
 449 0006 FF80     		.short	-32513
 450              		.section	.rodata.str1.4,"aMS",%progbits,1
 451              		.align	2
 452              	.LC5:
 453 0000 4C414220 		.ascii	"LAB 3.2 \015\012\000"
 453      332E3220 
 453      0D0A00
 454              		.bss
 455              		.set	.LANCHOR1,. + 0
 456              		.type	N_indyk.6993, %object
 457              		.size	N_indyk.6993, 1
 458              	N_indyk.6993:
 459 0000 00       		.space	1
 460              		.text
 461              	.Letext0:
 462              		.file 2 "Generated_Source\\PSoC4/cytypes.h"
 463              		.file 3 "Generated_Source\\PSoC4/SPIM.h"
 464              		.file 4 "Generated_Source\\PSoC4/UART_SPI_UART.h"
 465              		.file 5 "d:\\programs\\psoccreator\\psoc creator\\4.2\\psoc creator\\import\\gnu\\arm\\5.4.1\\arm-
 466              		.file 6 "Generated_Source\\PSoC4/isr_100Hz.h"
 467              		.file 7 "Generated_Source\\PSoC4/UART.h"
 468              		.file 8 "Generated_Source\\PSoC4/CyLib.h"